LIBRARY aten_cuda
EXPORTS
?launch_abs@cuda@at@@YAXPEBMPEAM_JPEAUCUstream_st@@@Z
?launch_adaptive_avg_pool2d_forward@cuda@at@@YAXPEBMPEAMHHHHHHPEAUCUstream_st@@@Z
?launch_add@cuda@at@@YAXPEBM0PEAM_JPEAUCUstream_st@@@Z
?launch_add_broadcast_col@cuda@at@@YAXPEBM0PEAM_J2PEAUCUstream_st@@@Z
?launch_add_broadcast_fp16@cuda@at@@YAXPEBU__half@@0PEAU3@_J2PEAUCUstream_st@@@Z
?launch_add_fp16@cuda@at@@YAXPEBU__half@@0PEAU3@_JPEAUCUstream_st@@@Z
?launch_add_scalar@cuda@at@@YAXPEBMMPEAM_JPEAUCUstream_st@@@Z
?launch_addcdiv@cuda@at@@YAXPEBM00MPEAM_JPEAUCUstream_st@@@Z
?launch_addcmul@cuda@at@@YAXPEBM00MPEAM_JPEAUCUstream_st@@@Z
?launch_addmm@cuda@at@@YAXPEBM0PEAMHHHMM_N2PEAUCUstream_st@@@Z
?launch_argmax@cuda@at@@YAXPEBMPEA_J_JPEAUCUstream_st@@@Z
?launch_argmin@cuda@at@@YAXPEBMPEA_J_JPEAUCUstream_st@@@Z
?launch_avg_pool2d_forward@cuda@at@@YAXPEBMPEAMHHHHHHHHHHHH_NPEAUCUstream_st@@@Z
?launch_batch_norm2d_forward@cuda@at@@YAXPEBM0000PEAMHHHHMPEAUCUstream_st@@@Z
?launch_batched_gemm@cuda@at@@YAXPEBM0PEAMHHHHMMPEAUCUstream_st@@@Z
?launch_causal_attention@cuda@at@@YAXPEBM00PEAMHHHHHHMPEAUCUstream_st@@@Z
?launch_ceil@cuda@at@@YAXPEBMPEAM_JPEAUCUstream_st@@@Z
?launch_check_inf_nan_fp16@cuda@at@@YAXPEBU__half@@_JPEAHPEAUCUstream_st@@@Z
?launch_check_inf_nan_fp32@cuda@at@@YAXPEBM_JPEAHPEAUCUstream_st@@@Z
?launch_clamp@cuda@at@@YAXPEBMPEAMMM_JPEAUCUstream_st@@@Z
?launch_concat@cuda@at@@YAXPEBM0PEAM_J22PEAUCUstream_st@@@Z
?launch_conv2d_forward@cuda@at@@YAXPEBM00PEAMHHHHHHHHHHHHHHHHPEAUCUstream_st@@@Z
?launch_copy@cuda@at@@YAXPEBMPEAM_JPEAUCUstream_st@@@Z
?launch_cos@cuda@at@@YAXPEBMPEAM_JPEAUCUstream_st@@@Z
?launch_cross_entropy_loss@cuda@at@@YAXPEBM0PEAMHHHPEAUCUstream_st@@@Z
?launch_cublas_hgemv@cuda@at@@YAXPEBXPEBMPEAMHHPEAX3PEAUCUstream_st@@_N@Z
?launch_dequant_q4k_to_fp16@cuda@at@@YAXPEBXPEAXHH_JPEAUCUstream_st@@@Z
?launch_div@cuda@at@@YAXPEBM0PEAM_JPEAUCUstream_st@@@Z
?launch_div_fp16@cuda@at@@YAXPEBU__half@@0PEAU3@_JPEAUCUstream_st@@@Z
?launch_div_scalar@cuda@at@@YAXPEBMMPEAM_JPEAUCUstream_st@@@Z
?launch_dot@cuda@at@@YAXPEBM0PEAM_JPEAUCUstream_st@@@Z
?launch_embedding_lookup@cuda@at@@YAXPEBMPEAMPEBHHPEAUCUstream_st@@@Z
?launch_eq@cuda@at@@YAXPEBM0PEAM_JPEAUCUstream_st@@@Z
?launch_eq_scalar@cuda@at@@YAXPEBMMPEAM_JPEAUCUstream_st@@@Z
?launch_exp@cuda@at@@YAXPEBMPEAM_JPEAUCUstream_st@@@Z
?launch_fill@cuda@at@@YAXPEAMM_JPEAUCUstream_st@@@Z
?launch_flash_decode@cuda@at@@YAXPEBM00PEAM111HHHHMPEAUCUstream_st@@@Z
?launch_flash_decode_fp16@cuda@at@@YAXPEBMPEBX1PEAM222HHHHMPEAUCUstream_st@@@Z
?launch_flash_decode_fp16_graph@cuda@at@@YAXPEBMPEBX1PEAM222HHHPEB_JHMPEAUCUstream_st@@@Z
?launch_flash_decode_graph@cuda@at@@YAXPEBM00PEAM111HHHPEB_JHMPEAUCUstream_st@@@Z
?launch_floor@cuda@at@@YAXPEBMPEAM_JPEAUCUstream_st@@@Z
?launch_fp16_gemv@cuda@at@@YAXPEBXPEBMPEAMHHPEAUCUstream_st@@@Z
?launch_fp16_kv_cache_write@cuda@at@@YAXPEBMPEAX_J22PEAUCUstream_st@@@Z
?launch_fused_qknorm_rope_kvwrite@cuda@at@@YAXPEAM0PEBM1100HHHHMM_N_JPEAUCUstream_st@@@Z
?launch_fused_qknorm_rope_kvwrite_graph@cuda@at@@YAXPEAM0PEBM1100HHHPEB_JMM_NPEAUCUstream_st@@@Z
?launch_ge@cuda@at@@YAXPEBM0PEAM_JPEAUCUstream_st@@@Z
?launch_ge_scalar@cuda@at@@YAXPEBMMPEAM_JPEAUCUstream_st@@@Z
?launch_gelu@cuda@at@@YAXPEBMPEAM_JPEAUCUstream_st@@@Z
?launch_gelu_fp16@cuda@at@@YAXPEBU__half@@PEAU3@_JPEAUCUstream_st@@@Z
?launch_gemm@cuda@at@@YAXPEBM0PEAMHHHMM_N2PEAUCUstream_st@@@Z
?launch_gemm_native@cuda@at@@YAXPEBM0PEAMHHHMM_N2PEAUCUstream_st@@@Z
?launch_gemv@cuda@at@@YAXPEBM0PEAMHHPEAUCUstream_st@@@Z
?launch_gt@cuda@at@@YAXPEBM0PEAM_JPEAUCUstream_st@@@Z
?launch_gt_scalar@cuda@at@@YAXPEBMMPEAM_JPEAUCUstream_st@@@Z
?launch_inference_gemv@cuda@at@@YAXPEBM0PEAMHHPEAUCUstream_st@@@Z
?launch_kv_cache_write@cuda@at@@YAXPEBMPEAM_J22PEAUCUstream_st@@@Z
?launch_l1_norm@cuda@at@@YAXPEBMPEAM_JPEAUCUstream_st@@@Z
?launch_l2_norm@cuda@at@@YAXPEBMPEAM_JPEAUCUstream_st@@@Z
?launch_layernorm_fp16@cuda@at@@YAXPEBU__half@@00PEAU3@HHMPEAUCUstream_st@@@Z
?launch_le@cuda@at@@YAXPEBM0PEAM_JPEAUCUstream_st@@@Z
?launch_le_scalar@cuda@at@@YAXPEBMMPEAM_JPEAUCUstream_st@@@Z
?launch_leaky_relu@cuda@at@@YAXPEBMPEAMM_JPEAUCUstream_st@@@Z
?launch_log10@cuda@at@@YAXPEBMPEAM_JPEAUCUstream_st@@@Z
?launch_log2@cuda@at@@YAXPEBMPEAM_JPEAUCUstream_st@@@Z
?launch_log@cuda@at@@YAXPEBMPEAM_JPEAUCUstream_st@@@Z
?launch_lt@cuda@at@@YAXPEBM0PEAM_JPEAUCUstream_st@@@Z
?launch_lt_scalar@cuda@at@@YAXPEBMMPEAM_JPEAUCUstream_st@@@Z
?launch_masked_fill@cuda@at@@YAXPEAMPEB_NM_JPEAUCUstream_st@@@Z
?launch_max@cuda@at@@YAXPEBMPEAM_JPEAUCUstream_st@@@Z
?launch_max_dim@cuda@at@@YAXPEBMPEAMPEA_J_J33PEAUCUstream_st@@@Z
?launch_max_pool2d_forward@cuda@at@@YAXPEBMPEAMHHHHHHHHHHHHPEAUCUstream_st@@@Z
?launch_maximum@cuda@at@@YAXPEBM0PEAM_JPEAUCUstream_st@@@Z
?launch_mean@cuda@at@@YAXPEBMPEAM_JPEAUCUstream_st@@@Z
?launch_mean_dim@cuda@at@@YAXPEBMPEAM_J22PEAUCUstream_st@@@Z
?launch_min@cuda@at@@YAXPEBMPEAM_JPEAUCUstream_st@@@Z
?launch_min_dim@cuda@at@@YAXPEBMPEAMPEA_J_J33PEAUCUstream_st@@@Z
?launch_minimum@cuda@at@@YAXPEBM0PEAM_JPEAUCUstream_st@@@Z
?launch_mul@cuda@at@@YAXPEBM0PEAM_JPEAUCUstream_st@@@Z
?launch_mul_broadcast_col@cuda@at@@YAXPEBM0PEAM_J2PEAUCUstream_st@@@Z
?launch_mul_broadcast_row@cuda@at@@YAXPEBM0PEAM_J2PEAUCUstream_st@@@Z
?launch_mul_fp16@cuda@at@@YAXPEBU__half@@0PEAU3@_JPEAUCUstream_st@@@Z
?launch_mul_scalar@cuda@at@@YAXPEBMMPEAM_JPEAUCUstream_st@@@Z
?launch_ne@cuda@at@@YAXPEBM0PEAM_JPEAUCUstream_st@@@Z
?launch_ne_scalar@cuda@at@@YAXPEBMMPEAM_JPEAUCUstream_st@@@Z
?launch_neg@cuda@at@@YAXPEBMPEAM_JPEAUCUstream_st@@@Z
?launch_nll_loss@cuda@at@@YAXPEBM0PEAMHHHPEAUCUstream_st@@@Z
?launch_outer@cuda@at@@YAXPEBM0PEAMHHPEAUCUstream_st@@@Z
?launch_parallel_scan@cuda@at@@YAXPEBM00PEAM1_J22PEAUCUstream_st@@@Z
?launch_per_head_rms_norm@cuda@at@@YAXPEAMPEBMHHHM_NPEAUCUstream_st@@@Z
?launch_pow@cuda@at@@YAXPEBM0PEAM_JPEAUCUstream_st@@@Z
?launch_pow_scalar@cuda@at@@YAXPEBMMPEAM_JPEAUCUstream_st@@@Z
?launch_q4km_fused_gate_up_gemv@cuda@at@@YAXPEBX0PEBMPEAM2HHH_JPEAUCUstream_st@@@Z
?launch_q4km_fused_qkv_gemv@cuda@at@@YAXPEBX00PEBMPEAM22HHHH_JPEAUCUstream_st@@@Z
?launch_q4km_fused_rmsnorm_gate_up_gemv@cuda@at@@YAXPEBM0PEBX1PEAM2HHH_JM_NPEAUCUstream_st@@@Z
?launch_q4km_fused_rmsnorm_gemv@cuda@at@@YAXPEBM0PEBXPEAMHH_JM_NPEAUCUstream_st@@@Z
?launch_q4km_fused_rmsnorm_qkv_gemv@cuda@at@@YAXPEBM0PEBX11PEAM22HHHH_JM_NPEAUCUstream_st@@@Z
?launch_q4km_gemv@cuda@at@@YAXPEBXPEBMPEAMHH_JPEAUCUstream_st@@@Z
?launch_q4km_persistent_gemv@cuda@at@@YAXPEBXPEBMPEAMHH_JPEAUCUstream_st@@@Z
?launch_q4km_persistent_gemv_accumulate@cuda@at@@YAXPEBXPEBMPEAMHH_JPEAUCUstream_st@@@Z
?launch_q4km_q8_gemv@cuda@at@@YAXPEBX0PEAMHH_JPEAUCUstream_st@@@Z
?launch_q5k_gemv@cuda@at@@YAXPEBXPEBMPEAMHH_JPEAUCUstream_st@@@Z
?launch_q6k_gemv@cuda@at@@YAXPEBXPEBMPEAMHH_JPEAUCUstream_st@@@Z
?launch_quantize_q8_1@cuda@at@@YAXPEBMPEAXHPEAUCUstream_st@@@Z
?launch_reciprocal@cuda@at@@YAXPEBMPEAM_JPEAUCUstream_st@@@Z
?launch_relu@cuda@at@@YAXPEBMPEAM_JPEAUCUstream_st@@@Z
?launch_relu_fp16@cuda@at@@YAXPEBU__half@@PEAU3@_JPEAUCUstream_st@@@Z
?launch_rms_norm@cuda@at@@YAXPEBM0PEAMHHM_NPEAUCUstream_st@@@Z
?launch_rmsnorm_fp16@cuda@at@@YAXPEBU__half@@0PEAU3@HHM_NPEAUCUstream_st@@@Z
?launch_rope@cuda@at@@YAXPEAMHHHHMPEAUCUstream_st@@@Z
?launch_rotary_embedding@cuda@at@@YAXPEBM00PEAM_J222PEAUCUstream_st@@@Z
?launch_round@cuda@at@@YAXPEBMPEAM_JPEAUCUstream_st@@@Z
?launch_rsqrt@cuda@at@@YAXPEBMPEAM_JPEAUCUstream_st@@@Z
?launch_sigmoid@cuda@at@@YAXPEBMPEAM_JPEAUCUstream_st@@@Z
?launch_sigmoid_fp16@cuda@at@@YAXPEBU__half@@PEAU3@_JPEAUCUstream_st@@@Z
?launch_sign@cuda@at@@YAXPEBMPEAM_JPEAUCUstream_st@@@Z
?launch_silu@cuda@at@@YAXPEBMPEAM_JPEAUCUstream_st@@@Z
?launch_silu_fp16@cuda@at@@YAXPEBU__half@@PEAU3@_JPEAUCUstream_st@@@Z
?launch_silu_mul@cuda@at@@YAXPEBM0PEAM_JPEAUCUstream_st@@@Z
?launch_sin@cuda@at@@YAXPEBMPEAM_JPEAUCUstream_st@@@Z
?launch_softmax@cuda@at@@YAXPEBMPEAM_J22PEAUCUstream_st@@@Z
?launch_softmax_fp16@cuda@at@@YAXPEBU__half@@PEAU3@_J22PEAUCUstream_st@@@Z
?launch_sqrt@cuda@at@@YAXPEBMPEAM_JPEAUCUstream_st@@@Z
?launch_square@cuda@at@@YAXPEBMPEAM_JPEAUCUstream_st@@@Z
?launch_sub@cuda@at@@YAXPEBM0PEAM_JPEAUCUstream_st@@@Z
?launch_sub_fp16@cuda@at@@YAXPEBU__half@@0PEAU3@_JPEAUCUstream_st@@@Z
?launch_sum@cuda@at@@YAXPEBMPEAM_JPEAUCUstream_st@@@Z
?launch_sum_dim@cuda@at@@YAXPEBMPEAM_J22PEAUCUstream_st@@@Z
?launch_tan@cuda@at@@YAXPEBMPEAM_JPEAUCUstream_st@@@Z
?launch_tanh@cuda@at@@YAXPEBMPEAM_JPEAUCUstream_st@@@Z
?launch_tanh_fp16@cuda@at@@YAXPEBU__half@@PEAU3@_JPEAUCUstream_st@@@Z
?launch_transpose@cuda@at@@YAXPEBMPEAMHHPEAUCUstream_st@@@Z
?launch_where@cuda@at@@YAXPEB_NPEBM1PEAM_JPEAUCUstream_st@@@Z
?allocate@CUDACachingAllocator@cuda@c10@@QEAA?AVDataPtr@3@_KHPEAUCUstream_st@@@Z
?allocate@CUDACachingAllocator@cuda@c10@@UEAA?AVDataPtr@3@_K@Z
?get@CUDACachingAllocator@cuda@c10@@SAAEAV123@XZ
?raw_deallocate@CUDACachingAllocator@cuda@c10@@UEAAXPEAX@Z
